; Function Attrs: mustprogress uwtable
define void @_ZN4LIEF2PE18ResourceDialogItemC2Ev(ptr noundef nonnull align 8 dereferenceable(106) %0) unnamed_addr #2 align 2 personality ptr @__gxx_personality_v0 {
  tail call void @_ZN4LIEF6ObjectC2Ev(ptr noundef nonnull align 8 dereferenceable(8) %0)
  store ptr getelementptr inbounds ({ [7 x ptr] }, ptr @_ZTVN4LIEF2PE18ResourceDialogItemE, i64 0, i32 0, i64 2), ptr %0, align 8
  %2 = getelementptr inbounds i8, ptr %0, i64 8
  store i8 1, ptr %2, align 8
  %3 = getelementptr inbounds i8, ptr %0, i64 12
  %4 = getelementptr inbounds i8, ptr %0, i64 40
  %5 = getelementptr inbounds i8, ptr %0, i64 56
  tail call void @llvm.memset.p0.i64(ptr noundef nonnull align 4 dereferenceable(24) %3, i8 0, i64 24, i1 false)
  store ptr %5, ptr %4, align 8
  %6 = getelementptr inbounds i8, ptr %0, i64 48
  store i64 0, ptr %6, align 8
  store i16 0, ptr %5, align 8
  %7 = getelementptr inbounds i8, ptr %0, i64 72
  %8 = getelementptr inbounds i8, ptr %0, i64 88
  store ptr %8, ptr %7, align 8
  %9 = getelementptr inbounds i8, ptr %0, i64 80
  store i64 0, ptr %9, align 8
  store i16 0, ptr %8, align 8
  %10 = getelementptr inbounds i8, ptr %0, i64 104
  store i16 0, ptr %10, align 8
  ret void
}